; Function Attrs: mustprogress nounwind uwtable
define internal fastcc void @_ZN5clang6format12_GLOBAL__N_116AnnotatingParser16parseConditionalEv(ptr noundef nonnull align 8 dereferenceable(1524) %0) unnamed_addr #0 align 2 {
  %2 = getelementptr inbounds nuw i8, ptr %0, i64 480
  br label %3

3:                                                ; preds = %18, %1
  %4 = load ptr, ptr %2, align 8
  %.not = icmp eq ptr %4, null
  br i1 %.not, label %.loopexit, label %5

5:                                                ; preds = %3
  %6 = getelementptr inbounds nuw i8, ptr %4, i64 16
  %7 = load i16, ptr %6, align 8
  %8 = icmp eq i16 %7, 62
  br i1 %8, label %9, label %18

9:                                                ; preds = %5
  %10 = getelementptr inbounds nuw i8, ptr %4, i64 256
  %11 = getelementptr inbounds nuw i8, ptr %4, i64 296
  %12 = load i8, ptr %11, align 8
  %13 = trunc i8 %12 to i1
  %14 = load i32, ptr %10, align 8
  %15 = icmp eq i32 %14, 1
  %or.cond.i = select i1 %13, i1 %15, i1 false
  br i1 %or.cond.i, label %_ZN5clang6format11FormatToken7setTypeENS0_9TokenTypeE.exit, label %16

16:                                               ; preds = %9
  %17 = getelementptr inbounds nuw i8, ptr %4, i64 67
  store i8 17, ptr %17, align 1
  br label %_ZN5clang6format11FormatToken7setTypeENS0_9TokenTypeE.exit

_ZN5clang6format11FormatToken7setTypeENS0_9TokenTypeE.exit: ; preds = %9, %16
  tail call fastcc void @_ZN5clang6format12_GLOBAL__N_116AnnotatingParser4nextEv(ptr noundef nonnull align 8 dereferenceable(1524) %0)
  br label %.loopexit

18:                                               ; preds = %5
  %19 = tail call fastcc noundef zeroext i1 @_ZN5clang6format12_GLOBAL__N_116AnnotatingParser12consumeTokenEv(ptr noundef nonnull align 8 dereferenceable(1524) %0)
  br i1 %19, label %3, label %.loopexit, !llvm.loop !129

.loopexit:                                        ; preds = %3, %18, %_ZN5clang6format11FormatToken7setTypeENS0_9TokenTypeE.exit
  ret void
}